; ModuleID = '57/1079.c'
source_filename = "57/1079.c"
target datalayout = "e-m:e-p270:32:32-p271:32:32-p272:64:64-i64:64-f80:128-n8:16:32:64-S128"
target triple = "x86_64-pc-linux-gnu"

@.str = private unnamed_addr constant [3 x i8] c"%d\00", align 1
@.str.1 = private unnamed_addr constant [3 x i8] c"%s\00", align 1
@.str.2 = private unnamed_addr constant [3 x i8] c"%c\00", align 1
@.str.3 = private unnamed_addr constant [2 x i8] c"\0A\00", align 1

; Function Attrs: noinline nounwind uwtable
define dso_local i32 @main() #0 {
  %1 = alloca i32, align 4
  %2 = alloca [100 x [288 x i8]], align 16
  %3 = alloca [260 x i8], align 16
  %4 = alloca i32, align 4
  %5 = alloca i32, align 4
  %6 = alloca i32, align 4
  %7 = alloca i32, align 4
  %8 = alloca i32, align 4
  store i32 0, i32* %1, align 4
  store i32 0, i32* %7, align 4
  %9 = call i32 (i8*, ...) @__isoc99_scanf(i8* getelementptr inbounds ([3 x i8], [3 x i8]* @.str, i64 0, i64 0), i32* %4)
  store i32 0, i32* %5, align 4
  br label %10

10:                                               ; preds = %19, %0
  %11 = load i32, i32* %5, align 4
  %12 = load i32, i32* %4, align 4
  %13 = icmp slt i32 %11, %12
  br i1 %13, label %14, label %22

14:                                               ; preds = %10
  %15 = load i32, i32* %5, align 4
  %16 = sext i32 %15 to i64
  %17 = getelementptr inbounds [100 x [288 x i8]], [100 x [288 x i8]]* %2, i64 0, i64 %16
  %18 = call i32 (i8*, ...) @__isoc99_scanf(i8* getelementptr inbounds ([3 x i8], [3 x i8]* @.str.1, i64 0, i64 0), [288 x i8]* %17)
  br label %19

19:                                               ; preds = %14
  %20 = load i32, i32* %5, align 4
  %21 = add nsw i32 %20, 1
  store i32 %21, i32* %5, align 4
  br label %10

22:                                               ; preds = %10
  store i32 0, i32* %5, align 4
  br label %23

23:                                               ; preds = %150, %22
  %24 = load i32, i32* %5, align 4
  %25 = load i32, i32* %4, align 4
  %26 = icmp slt i32 %24, %25
  br i1 %26, label %27, label %153

27:                                               ; preds = %23
  %28 = getelementptr inbounds [260 x i8], [260 x i8]* %3, i64 0, i64 0
  %29 = load i32, i32* %5, align 4
  %30 = sext i32 %29 to i64
  %31 = getelementptr inbounds [100 x [288 x i8]], [100 x [288 x i8]]* %2, i64 0, i64 %30
  %32 = getelementptr inbounds [288 x i8], [288 x i8]* %31, i64 0, i64 0
  %33 = call i8* @strcpy(i8* %28, i8* %32) #4
  %34 = getelementptr inbounds [260 x i8], [260 x i8]* %3, i64 0, i64 0
  %35 = call i64 @strlen(i8* %34) #5
  %36 = trunc i64 %35 to i32
  store i32 %36, i32* %8, align 4
  %37 = load i32, i32* %8, align 4
  %38 = sub nsw i32 %37, 1
  %39 = sext i32 %38 to i64
  %40 = getelementptr inbounds [260 x i8], [260 x i8]* %3, i64 0, i64 %39
  %41 = load i8, i8* %40, align 1
  %42 = sext i8 %41 to i32
  %43 = icmp eq i32 %42, 114
  br i1 %43, label %44, label %69

44:                                               ; preds = %27
  %45 = load i32, i32* %8, align 4
  %46 = sub nsw i32 %45, 2
  %47 = sext i32 %46 to i64
  %48 = getelementptr inbounds [260 x i8], [260 x i8]* %3, i64 0, i64 %47
  %49 = load i8, i8* %48, align 1
  %50 = sext i8 %49 to i32
  %51 = icmp eq i32 %50, 101
  br i1 %51, label %52, label %69

52:                                               ; preds = %44
  store i32 0, i32* %6, align 4
  br label %53

53:                                               ; preds = %65, %52
  %54 = load i32, i32* %6, align 4
  %55 = load i32, i32* %8, align 4
  %56 = sub nsw i32 %55, 2
  %57 = icmp slt i32 %54, %56
  br i1 %57, label %58, label %68

58:                                               ; preds = %53
  %59 = load i32, i32* %6, align 4
  %60 = sext i32 %59 to i64
  %61 = getelementptr inbounds [260 x i8], [260 x i8]* %3, i64 0, i64 %60
  %62 = load i8, i8* %61, align 1
  %63 = sext i8 %62 to i32
  %64 = call i32 (i8*, ...) @printf(i8* getelementptr inbounds ([3 x i8], [3 x i8]* @.str.2, i64 0, i64 0), i32 %63)
  br label %65

65:                                               ; preds = %58
  %66 = load i32, i32* %6, align 4
  %67 = add nsw i32 %66, 1
  store i32 %67, i32* %6, align 4
  br label %53

68:                                               ; preds = %53
  br label %148

69:                                               ; preds = %44, %27
  %70 = load i32, i32* %8, align 4
  %71 = sub nsw i32 %70, 1
  %72 = sext i32 %71 to i64
  %73 = getelementptr inbounds [260 x i8], [260 x i8]* %3, i64 0, i64 %72
  %74 = load i8, i8* %73, align 1
  %75 = sext i8 %74 to i32
  %76 = icmp eq i32 %75, 121
  br i1 %76, label %77, label %102

77:                                               ; preds = %69
  %78 = load i32, i32* %8, align 4
  %79 = sub nsw i32 %78, 2
  %80 = sext i32 %79 to i64
  %81 = getelementptr inbounds [260 x i8], [260 x i8]* %3, i64 0, i64 %80
  %82 = load i8, i8* %81, align 1
  %83 = sext i8 %82 to i32
  %84 = icmp eq i32 %83, 108
  br i1 %84, label %85, label %102

85:                                               ; preds = %77
  store i32 0, i32* %6, align 4
  br label %86

86:                                               ; preds = %98, %85
  %87 = load i32, i32* %6, align 4
  %88 = load i32, i32* %8, align 4
  %89 = sub nsw i32 %88, 2
  %90 = icmp slt i32 %87, %89
  br i1 %90, label %91, label %101

91:                                               ; preds = %86
  %92 = load i32, i32* %6, align 4
  %93 = sext i32 %92 to i64
  %94 = getelementptr inbounds [260 x i8], [260 x i8]* %3, i64 0, i64 %93
  %95 = load i8, i8* %94, align 1
  %96 = sext i8 %95 to i32
  %97 = call i32 (i8*, ...) @printf(i8* getelementptr inbounds ([3 x i8], [3 x i8]* @.str.2, i64 0, i64 0), i32 %96)
  br label %98

98:                                               ; preds = %91
  %99 = load i32, i32* %6, align 4
  %100 = add nsw i32 %99, 1
  store i32 %100, i32* %6, align 4
  br label %86

101:                                              ; preds = %86
  br label %147

102:                                              ; preds = %77, %69
  %103 = load i32, i32* %8, align 4
  %104 = sub nsw i32 %103, 1
  %105 = sext i32 %104 to i64
  %106 = getelementptr inbounds [260 x i8], [260 x i8]* %3, i64 0, i64 %105
  %107 = load i8, i8* %106, align 1
  %108 = sext i8 %107 to i32
  %109 = icmp eq i32 %108, 103
  br i1 %109, label %110, label %143

110:                                              ; preds = %102
  %111 = load i32, i32* %8, align 4
  %112 = sub nsw i32 %111, 2
  %113 = sext i32 %112 to i64
  %114 = getelementptr inbounds [260 x i8], [260 x i8]* %3, i64 0, i64 %113
  %115 = load i8, i8* %114, align 1
  %116 = sext i8 %115 to i32
  %117 = icmp eq i32 %116, 110
  br i1 %117, label %118, label %143

118:                                              ; preds = %110
  %119 = load i32, i32* %8, align 4
  %120 = sub nsw i32 %119, 3
  %121 = sext i32 %120 to i64
  %122 = getelementptr inbounds [260 x i8], [260 x i8]* %3, i64 0, i64 %121
  %123 = load i8, i8* %122, align 1
  %124 = sext i8 %123 to i32
  %125 = icmp eq i32 %124, 105
  br i1 %125, label %126, label %143

126:                                              ; preds = %118
  store i32 0, i32* %6, align 4
  br label %127

127:                                              ; preds = %139, %126
  %128 = load i32, i32* %6, align 4
  %129 = load i32, i32* %8, align 4
  %130 = sub nsw i32 %129, 3
  %131 = icmp slt i32 %128, %130
  br i1 %131, label %132, label %142

132:                                              ; preds = %127
  %133 = load i32, i32* %6, align 4
  %134 = sext i32 %133 to i64
  %135 = getelementptr inbounds [260 x i8], [260 x i8]* %3, i64 0, i64 %134
  %136 = load i8, i8* %135, align 1
  %137 = sext i8 %136 to i32
  %138 = call i32 (i8*, ...) @printf(i8* getelementptr inbounds ([3 x i8], [3 x i8]* @.str.2, i64 0, i64 0), i32 %137)
  br label %139

139:                                              ; preds = %132
  %140 = load i32, i32* %6, align 4
  %141 = add nsw i32 %140, 1
  store i32 %141, i32* %6, align 4
  br label %127

142:                                              ; preds = %127
  br label %146

143:                                              ; preds = %118, %110, %102
  %144 = getelementptr inbounds [260 x i8], [260 x i8]* %3, i64 0, i64 0
  %145 = call i32 (i8*, ...) @printf(i8* getelementptr inbounds ([3 x i8], [3 x i8]* @.str.1, i64 0, i64 0), i8* %144)
  br label %146

146:                                              ; preds = %143, %142
  br label %147

147:                                              ; preds = %146, %101
  br label %148

148:                                              ; preds = %147, %68
  %149 = call i32 (i8*, ...) @printf(i8* getelementptr inbounds ([2 x i8], [2 x i8]* @.str.3, i64 0, i64 0))
  br label %150

150:                                              ; preds = %148
  %151 = load i32, i32* %5, align 4
  %152 = add nsw i32 %151, 1
  store i32 %152, i32* %5, align 4
  br label %23

153:                                              ; preds = %23
  ret i32 0
}

declare dso_local i32 @__isoc99_scanf(i8*, ...) #1

; Function Attrs: nounwind
declare dso_local i8* @strcpy(i8*, i8*) #2

; Function Attrs: nounwind readonly
declare dso_local i64 @strlen(i8*) #3

declare dso_local i32 @printf(i8*, ...) #1


!llvm.module.flags = !{!0}
!llvm.ident = !{!1}

!0 = !{i32 1, !"wchar_size", i32 4}
!1 = !{!"clang version 10.0.0-4ubuntu1 "}
