; ModuleID = 'source-C-CXX/56/1079.c'
source_filename = "source-C-CXX/56/1079.c"
target datalayout = "e-m:e-p270:32:32-p271:32:32-p272:64:64-i64:64-f80:128-n8:16:32:64-S128"
target triple = "x86_64-pc-linux-gnu"

@.str = private unnamed_addr constant [3 x i8] c"%d\00", align 1
@.str.1 = private unnamed_addr constant [3 x i8] c"%s\00", align 1

; Function Attrs: nofree nounwind sspstrong uwtable
define dso_local i32 @main() local_unnamed_addr #0 {
  %1 = alloca [100 x [288 x i8]], align 16
  %2 = alloca [260 x i8], align 16
  %3 = alloca i32, align 4
  %4 = getelementptr inbounds [100 x [288 x i8]], [100 x [288 x i8]]* %1, i64 0, i64 0, i64 0
  call void @llvm.lifetime.start.p0i8(i64 28800, i8* nonnull %4) #6
  %5 = getelementptr inbounds [260 x i8], [260 x i8]* %2, i64 0, i64 0
  call void @llvm.lifetime.start.p0i8(i64 260, i8* nonnull %5) #6
  %6 = bitcast i32* %3 to i8*
  call void @llvm.lifetime.start.p0i8(i64 4, i8* nonnull %6) #6
  %7 = call i32 (i8*, ...) @__isoc99_scanf(i8* getelementptr inbounds ([3 x i8], [3 x i8]* @.str, i64 0, i64 0), i32* nonnull %3)
  %8 = load i32, i32* %3, align 4, !tbaa !5
  %9 = icmp sgt i32 %8, 0
  br i1 %9, label %12, label %99

10:                                               ; preds = %12
  %11 = icmp sgt i32 %17, 0
  br i1 %11, label %20, label %99

12:                                               ; preds = %0, %12
  %13 = phi i64 [ %16, %12 ], [ 0, %0 ]
  %14 = getelementptr inbounds [100 x [288 x i8]], [100 x [288 x i8]]* %1, i64 0, i64 %13
  %15 = call i32 (i8*, ...) @__isoc99_scanf(i8* getelementptr inbounds ([3 x i8], [3 x i8]* @.str.1, i64 0, i64 0), [288 x i8]* nonnull %14)
  %16 = add nuw nsw i64 %13, 1
  %17 = load i32, i32* %3, align 4, !tbaa !5
  %18 = sext i32 %17 to i64
  %19 = icmp slt i64 %16, %18
  br i1 %19, label %12, label %10, !llvm.loop !9

20:                                               ; preds = %10, %93
  %21 = phi i64 [ %95, %93 ], [ 0, %10 ]
  %22 = getelementptr inbounds [100 x [288 x i8]], [100 x [288 x i8]]* %1, i64 0, i64 %21, i64 0
  %23 = call i8* @strcpy(i8* noundef nonnull %5, i8* noundef nonnull %22) #6
  %24 = call i64 @strlen(i8* noundef nonnull %5) #7
  %25 = trunc i64 %24 to i32
  %26 = shl i64 %24, 32
  %27 = add i64 %26, -4294967296
  %28 = ashr exact i64 %27, 32
  %29 = getelementptr inbounds [260 x i8], [260 x i8]* %2, i64 0, i64 %28
  %30 = load i8, i8* %29, align 1, !tbaa !11
  switch i8 %30, label %91 [
    i8 114, label %31
    i8 121, label %49
    i8 103, label %67
  ]

31:                                               ; preds = %20
  %32 = add i32 %25, -2
  %33 = sext i32 %32 to i64
  %34 = getelementptr inbounds [260 x i8], [260 x i8]* %2, i64 0, i64 %33
  %35 = load i8, i8* %34, align 1, !tbaa !11
  %36 = icmp eq i8 %35, 101
  br i1 %36, label %37, label %91

37:                                               ; preds = %31
  %38 = icmp sgt i32 %25, 2
  br i1 %38, label %39, label %93

39:                                               ; preds = %37
  %40 = zext i32 %32 to i64
  br label %41

41:                                               ; preds = %39, %41
  %42 = phi i64 [ 0, %39 ], [ %47, %41 ]
  %43 = getelementptr inbounds [260 x i8], [260 x i8]* %2, i64 0, i64 %42
  %44 = load i8, i8* %43, align 1, !tbaa !11
  %45 = sext i8 %44 to i32
  %46 = call i32 @putchar(i32 %45)
  %47 = add nuw nsw i64 %42, 1
  %48 = icmp eq i64 %47, %40
  br i1 %48, label %93, label %41, !llvm.loop !12

49:                                               ; preds = %20
  %50 = add i32 %25, -2
  %51 = sext i32 %50 to i64
  %52 = getelementptr inbounds [260 x i8], [260 x i8]* %2, i64 0, i64 %51
  %53 = load i8, i8* %52, align 1, !tbaa !11
  %54 = icmp eq i8 %53, 108
  br i1 %54, label %55, label %91

55:                                               ; preds = %49
  %56 = icmp sgt i32 %25, 2
  br i1 %56, label %57, label %93

57:                                               ; preds = %55
  %58 = zext i32 %50 to i64
  br label %59

59:                                               ; preds = %57, %59
  %60 = phi i64 [ 0, %57 ], [ %65, %59 ]
  %61 = getelementptr inbounds [260 x i8], [260 x i8]* %2, i64 0, i64 %60
  %62 = load i8, i8* %61, align 1, !tbaa !11
  %63 = sext i8 %62 to i32
  %64 = call i32 @putchar(i32 %63)
  %65 = add nuw nsw i64 %60, 1
  %66 = icmp eq i64 %65, %58
  br i1 %66, label %93, label %59, !llvm.loop !13

67:                                               ; preds = %20
  %68 = add i64 %26, -8589934592
  %69 = ashr exact i64 %68, 32
  %70 = getelementptr inbounds [260 x i8], [260 x i8]* %2, i64 0, i64 %69
  %71 = load i8, i8* %70, align 1, !tbaa !11
  %72 = icmp eq i8 %71, 110
  br i1 %72, label %73, label %91

73:                                               ; preds = %67
  %74 = add i32 %25, -3
  %75 = sext i32 %74 to i64
  %76 = getelementptr inbounds [260 x i8], [260 x i8]* %2, i64 0, i64 %75
  %77 = load i8, i8* %76, align 1, !tbaa !11
  %78 = icmp eq i8 %77, 105
  br i1 %78, label %79, label %91

79:                                               ; preds = %73
  %80 = icmp sgt i32 %25, 3
  br i1 %80, label %81, label %93

81:                                               ; preds = %79
  %82 = zext i32 %74 to i64
  br label %83

83:                                               ; preds = %81, %83
  %84 = phi i64 [ 0, %81 ], [ %89, %83 ]
  %85 = getelementptr inbounds [260 x i8], [260 x i8]* %2, i64 0, i64 %84
  %86 = load i8, i8* %85, align 1, !tbaa !11
  %87 = sext i8 %86 to i32
  %88 = call i32 @putchar(i32 %87)
  %89 = add nuw nsw i64 %84, 1
  %90 = icmp eq i64 %89, %82
  br i1 %90, label %93, label %83, !llvm.loop !14

91:                                               ; preds = %20, %31, %49, %73, %67
  %92 = call i32 (i8*, ...) @printf(i8* nonnull dereferenceable(1) getelementptr inbounds ([3 x i8], [3 x i8]* @.str.1, i64 0, i64 0), i8* nonnull %5)
  br label %93

93:                                               ; preds = %83, %59, %41, %79, %55, %37, %91
  %94 = call i32 @putchar(i32 10)
  %95 = add nuw nsw i64 %21, 1
  %96 = load i32, i32* %3, align 4, !tbaa !5
  %97 = sext i32 %96 to i64
  %98 = icmp slt i64 %95, %97
  br i1 %98, label %20, label %99, !llvm.loop !15

99:                                               ; preds = %93, %0, %10
  call void @llvm.lifetime.end.p0i8(i64 4, i8* nonnull %6) #6
  call void @llvm.lifetime.end.p0i8(i64 260, i8* nonnull %5) #6
  call void @llvm.lifetime.end.p0i8(i64 28800, i8* nonnull %4) #6
  ret i32 0
}

; Function Attrs: argmemonly mustprogress nofree nosync nounwind willreturn
declare void @llvm.lifetime.start.p0i8(i64 immarg, i8* nocapture) #1

; Function Attrs: nofree nounwind
declare noundef i32 @__isoc99_scanf(i8* nocapture noundef readonly, ...) local_unnamed_addr #2

; Function Attrs: argmemonly mustprogress nofree nounwind willreturn
declare i8* @strcpy(i8* noalias returned writeonly, i8* noalias nocapture readonly) local_unnamed_addr #3

; Function Attrs: argmemonly mustprogress nofree nounwind readonly willreturn
declare i64 @strlen(i8* nocapture) local_unnamed_addr #4

; Function Attrs: nofree nounwind
declare noundef i32 @printf(i8* nocapture noundef readonly, ...) local_unnamed_addr #2

; Function Attrs: argmemonly mustprogress nofree nosync nounwind willreturn
declare void @llvm.lifetime.end.p0i8(i64 immarg, i8* nocapture) #1

; Function Attrs: nofree nounwind
declare noundef i32 @putchar(i32 noundef) local_unnamed_addr #5


!llvm.module.flags = !{!0, !1, !2, !3}
!llvm.ident = !{!4}

!0 = !{i32 1, !"wchar_size", i32 4}
!1 = !{i32 7, !"PIC Level", i32 2}
!2 = !{i32 7, !"PIE Level", i32 2}
!3 = !{i32 7, !"uwtable", i32 1}
!4 = !{!"clang version 13.0.0"}
!5 = !{!6, !6, i64 0}
!6 = !{!"int", !7, i64 0}
!7 = !{!"omnipotent char", !8, i64 0}
!8 = !{!"Simple C/C++ TBAA"}
!9 = distinct !{!9, !10}
!10 = !{!"llvm.loop.mustprogress"}
!11 = !{!7, !7, i64 0}
!12 = distinct !{!12, !10}
!13 = distinct !{!13, !10}
!14 = distinct !{!14, !10}
!15 = distinct !{!15, !10}
